target datalayout = "e-m:e-p270:32:32-p271:32:32-p272:64:64-i64:64-i128:128-f80:128-n8:16:32:64-S128"
target triple = "x86_64-pc-linux-gnu"

%struct.ASNItem = type { i8, i8, i8, i8 }
%struct.ASNGetData = type { i32, i32, %union.anon.0, i8, i8 }
%union.anon.0 = type { %struct.anon.3 }
%struct.anon.3 = type { ptr, i32, i32, i32 }
%struct.anon.1 = type { ptr, ptr }

@nameHashASN = internal constant [2 x %struct.ASNItem] [%struct.ASNItem { i8 0, i8 6, i8 0, i8 1 }, %struct.ASNItem { i8 0, i8 16, i8 1, i8 0 }], align 1

; Function Attrs: nounwind uwtable
define i32 @CalcHashId_ex(ptr noundef %0, i32 noundef %1, ptr noundef %2, i32 noundef %3) #0 {
  %5 = alloca ptr, align 8
  %6 = alloca i32, align 4
  %7 = alloca ptr, align 8
  %8 = alloca i32, align 4
  %9 = alloca i32, align 4
  store ptr %0, ptr %5, align 8, !tbaa !7
  store i32 %1, ptr %6, align 4, !tbaa !3
  store ptr %2, ptr %7, align 8, !tbaa !7
  store i32 %3, ptr %8, align 4, !tbaa !3
  call void @llvm.lifetime.start.p0(i64 4, ptr %9) #9
  %10 = load i32, ptr %8, align 4, !tbaa !3
  %11 = icmp eq i32 %10, 4
  br i1 %11, label %12, label %17

12:                                               ; preds = %4
  %13 = load ptr, ptr %5, align 8, !tbaa !7
  %14 = load i32, ptr %6, align 4, !tbaa !3
  %15 = load ptr, ptr %7, align 8, !tbaa !7
  %16 = call i32 @wc_ShaHash(ptr noundef %13, i32 noundef %14, ptr noundef %15)
  store i32 %16, ptr %9, align 4, !tbaa !3
  br label %18

17:                                               ; preds = %4
  store i32 -174, ptr %9, align 4, !tbaa !3
  br label %18

18:                                               ; preds = %17, %12
  %19 = load i32, ptr %9, align 4, !tbaa !3
  call void @llvm.lifetime.end.p0(i64 4, ptr %9) #9
  ret i32 %19
}

; Function Attrs: nounwind uwtable
define i32 @HashIdAlg(i32 noundef %0) #0 {
  %2 = alloca i32, align 4
  store i32 %0, ptr %2, align 4, !tbaa !3
  ret i32 4
}

; Function Attrs: nounwind uwtable
define i32 @GetNameHash_ex(ptr noundef %0, ptr noundef %1, ptr noundef %2, i32 noundef %3, i32 noundef %4) #0 {
  %6 = alloca ptr, align 8
  %7 = alloca ptr, align 8
  %8 = alloca ptr, align 8
  %9 = alloca i32, align 4
  %10 = alloca i32, align 4
  %11 = alloca [2 x %struct.ASNGetData], align 16
  %12 = alloca i32, align 4
  store ptr %0, ptr %6, align 8, !tbaa !7
  store ptr %1, ptr %7, align 8, !tbaa !18
  store ptr %2, ptr %8, align 8, !tbaa !7
  store i32 %3, ptr %9, align 4, !tbaa !3
  store i32 %4, ptr %10, align 4, !tbaa !3
  call void @llvm.lifetime.start.p0(i64 80, ptr %11) #9
  call void @llvm.lifetime.start.p0(i64 4, ptr %12) #9
  %13 = getelementptr inbounds [2 x %struct.ASNGetData], ptr %11, i64 0, i64 0
  call void @llvm.memset.p0.i64(ptr align 16 %13, i8 0, i64 80, i1 false)
  %14 = getelementptr inbounds [2 x %struct.ASNGetData], ptr %11, i64 0, i64 0
  %15 = getelementptr inbounds nuw %struct.ASNGetData, ptr %14, i32 0, i32 2
  %16 = getelementptr inbounds nuw %struct.anon.3, ptr %15, i32 0, i32 2
  store i32 21, ptr %16, align 4, !tbaa !10
  %17 = getelementptr inbounds [2 x %struct.ASNGetData], ptr %11, i64 0, i64 0
  %18 = load ptr, ptr %6, align 8, !tbaa !7
  %19 = load ptr, ptr %7, align 8, !tbaa !18
  %20 = load i32, ptr %9, align 4, !tbaa !3
  %21 = call i32 @GetASN_Items(ptr noundef @nameHashASN, ptr noundef %17, i32 noundef 2, i32 noundef 0, ptr noundef %18, ptr noundef %19, i32 noundef %20)
  store i32 %21, ptr %12, align 4, !tbaa !3
  %22 = load i32, ptr %12, align 4, !tbaa !3
  %23 = icmp eq i32 %22, 0
  br i1 %23, label %24, label %52

24:                                               ; preds = %5
  %25 = load ptr, ptr %6, align 8, !tbaa !7
  %26 = getelementptr inbounds [2 x %struct.ASNGetData], ptr %11, i64 0, i64 1
  %27 = getelementptr inbounds nuw %struct.ASNGetData, ptr %26, i32 0, i32 0
  %28 = load i32, ptr %27, align 8, !tbaa !39
  %29 = zext i32 %28 to i64
  %30 = getelementptr inbounds nuw i8, ptr %25, i64 %29
  %31 = getelementptr inbounds [2 x %struct.ASNGetData], ptr %11, i64 0, i64 1
  %32 = getelementptr inbounds nuw %struct.ASNGetData, ptr %31, i32 0, i32 1
  %33 = load i32, ptr %32, align 4, !tbaa !41
  %34 = getelementptr inbounds [2 x %struct.ASNGetData], ptr %11, i64 0, i64 1
  %35 = getelementptr inbounds nuw %struct.ASNGetData, ptr %34, i32 0, i32 2
  %36 = getelementptr inbounds nuw %struct.anon.1, ptr %35, i32 0, i32 0
  %37 = load ptr, ptr %36, align 8, !tbaa !10
  %38 = load ptr, ptr %6, align 8, !tbaa !7
  %39 = ptrtoint ptr %37 to i64
  %40 = ptrtoint ptr %38 to i64
  %41 = sub i64 %39, %40
  %42 = trunc i64 %41 to i32
  %43 = add i32 %33, %42
  %44 = getelementptr inbounds [2 x %struct.ASNGetData], ptr %11, i64 0, i64 1
  %45 = getelementptr inbounds nuw %struct.ASNGetData, ptr %44, i32 0, i32 0
  %46 = load i32, ptr %45, align 8, !tbaa !39
  %47 = sub i32 %43, %46
  %48 = load ptr, ptr %8, align 8, !tbaa !7
  %49 = load i32, ptr %10, align 4, !tbaa !3
  %50 = call i32 @HashIdAlg(i32 noundef %49)
  %51 = call i32 @CalcHashId_ex(ptr noundef %30, i32 noundef %47, ptr noundef %48, i32 noundef %50)
  store i32 %51, ptr %12, align 4, !tbaa !3
  br label %52

52:                                               ; preds = %24, %5
  %53 = load i32, ptr %12, align 4, !tbaa !3
  call void @llvm.lifetime.end.p0(i64 4, ptr %12) #9
  call void @llvm.lifetime.end.p0(i64 80, ptr %11) #9
  ret i32 %53
}

; Function Attrs: nounwind uwtable
define i32 @GetNameHash(ptr noundef %0, ptr noundef %1, ptr noundef %2, i32 noundef %3) #0 {
  %5 = alloca ptr, align 8
  %6 = alloca ptr, align 8
  %7 = alloca ptr, align 8
  %8 = alloca i32, align 4
  store ptr %0, ptr %5, align 8, !tbaa !7
  store ptr %1, ptr %6, align 8, !tbaa !18
  store ptr %2, ptr %7, align 8, !tbaa !7
  store i32 %3, ptr %8, align 4, !tbaa !3
  %9 = load ptr, ptr %5, align 8, !tbaa !7
  %10 = load ptr, ptr %6, align 8, !tbaa !18
  %11 = load ptr, ptr %7, align 8, !tbaa !7
  %12 = load i32, ptr %8, align 4, !tbaa !3
  %13 = call i32 @GetNameHash_ex(ptr noundef %9, ptr noundef %10, ptr noundef %11, i32 noundef %12, i32 noundef 0)
  ret i32 %13
}