; Function Attrs: nounwind uwtable
define i32 @GetNameHash(ptr noundef %0, ptr noundef captures(none) %1, ptr noundef %2, i32 noundef %3) local_unnamed_addr #2 {
  %5 = alloca [2 x %struct.ASNGetData], align 16
  call void @llvm.lifetime.start.p0(i64 80, ptr nonnull %5) #22
  call void @llvm.memset.p0.i64(ptr noundef nonnull align 16 dereferenceable(80) %5, i8 0, i64 80, i1 false)
  %6 = getelementptr inbounds nuw i8, ptr %5, i64 20
  store i32 21, ptr %6, align 4, !tbaa !3
  %7 = call i32 @GetASN_Items(ptr noundef nonnull @nameHashASN, ptr noundef nonnull %5, i32 noundef 2, i32 noundef 0, ptr noundef %0, ptr noundef %1, i32 noundef %3)
  %8 = icmp eq i32 %7, 0
  br i1 %8, label %9, label %GetNameHash_ex.exit

9:                                                ; preds = %4
  %10 = getelementptr inbounds nuw i8, ptr %5, i64 40
  %11 = load i32, ptr %10, align 8, !tbaa !28
  %12 = zext i32 %11 to i64
  %13 = getelementptr inbounds nuw i8, ptr %0, i64 %12
  %14 = getelementptr inbounds nuw i8, ptr %5, i64 44
  %15 = load i32, ptr %14, align 4, !tbaa !30
  %16 = getelementptr inbounds nuw i8, ptr %5, i64 48
  %17 = load ptr, ptr %16, align 16, !tbaa !3
  %18 = ptrtoint ptr %17 to i64
  %19 = ptrtoint ptr %0 to i64
  %20 = sub i64 %18, %19
  %21 = trunc i64 %20 to i32
  %22 = sub i32 %15, %11
  %23 = add i32 %22, %21
  %24 = tail call i32 @wc_ShaHash(ptr noundef %13, i32 noundef %23, ptr noundef %2) #22
  br label %GetNameHash_ex.exit

GetNameHash_ex.exit:                              ; preds = %4, %9
  %.0.i = phi i32 [ %24, %9 ], [ %7, %4 ]
  call void @llvm.lifetime.end.p0(i64 80, ptr nonnull %5) #22
  ret i32 %.0.i
}